	.file	"test04.cpp"
# GNU C++14 (Ubuntu 5.4.0-6ubuntu1~16.04.12) version 5.4.0 20160609 (x86_64-linux-gnu)
#	compiled by GNU C version 5.4.0 20160609, GMP version 6.1.0, MPFR version 3.1.4, MPC version 1.0.3
# GGC heuristics: --param ggc-min-expand=100 --param ggc-min-heapsize=131072
# options passed:  -imultiarch x86_64-linux-gnu -D_GNU_SOURCE
# -D TEST04_PROGRAM test04.cpp -mtune=generic -march=x86-64 -O3 -std=c++14
# -fverbose-asm -fstack-protector-strong -Wformat -Wformat-security
# options enabled:  -faggressive-loop-optimizations -falign-labels
# -fasynchronous-unwind-tables -fauto-inc-dec -fbranch-count-reg
# -fcaller-saves -fchkp-check-incomplete-type -fchkp-check-read
# -fchkp-check-write -fchkp-instrument-calls -fchkp-narrow-bounds
# -fchkp-optimize -fchkp-store-bounds -fchkp-use-static-bounds
# -fchkp-use-static-const-bounds -fchkp-use-wrappers
# -fcombine-stack-adjustments -fcommon -fcompare-elim -fcprop-registers
# -fcrossjumping -fcse-follow-jumps -fdefer-pop
# -fdelete-null-pointer-checks -fdevirtualize -fdevirtualize-speculatively
# -fdwarf2-cfi-asm -fearly-inlining -feliminate-unused-debug-types
# -fexceptions -fexpensive-optimizations -fforward-propagate -ffunction-cse
# -fgcse -fgcse-after-reload -fgcse-lm -fgnu-runtime -fgnu-unique
# -fguess-branch-probability -fhoist-adjacent-loads -fident -fif-conversion
# -fif-conversion2 -findirect-inlining -finline -finline-atomics
# -finline-functions -finline-functions-called-once
# -finline-small-functions -fipa-cp -fipa-cp-alignment -fipa-cp-clone
# -fipa-icf -fipa-icf-functions -fipa-icf-variables -fipa-profile
# -fipa-pure-const -fipa-ra -fipa-reference -fipa-sra -fira-hoist-pressure
# -fira-share-save-slots -fira-share-spill-slots
# -fisolate-erroneous-paths-dereference -fivopts -fkeep-static-consts
# -fleading-underscore -flifetime-dse -flra-remat -flto-odr-type-merging
# -fmath-errno -fmerge-constants -fmerge-debug-strings
# -fmove-loop-invariants -fomit-frame-pointer -foptimize-sibling-calls
# -foptimize-strlen -fpartial-inlining -fpeephole -fpeephole2
# -fpredictive-commoning -fprefetch-loop-arrays -free -freg-struct-return
# -freorder-blocks -freorder-blocks-and-partition -freorder-functions
# -frerun-cse-after-loop -fsched-critical-path-heuristic
# -fsched-dep-count-heuristic -fsched-group-heuristic -fsched-interblock
# -fsched-last-insn-heuristic -fsched-rank-heuristic -fsched-spec
# -fsched-spec-insn-heuristic -fsched-stalled-insns-dep -fschedule-fusion
# -fschedule-insns2 -fsemantic-interposition -fshow-column -fshrink-wrap
# -fsigned-zeros -fsplit-ivs-in-unroller -fsplit-wide-types -fssa-phiopt
# -fstack-protector-strong -fstdarg-opt -fstrict-aliasing -fstrict-overflow
# -fstrict-volatile-bitfields -fsync-libcalls -fthread-jumps
# -ftoplevel-reorder -ftrapping-math -ftree-bit-ccp -ftree-builtin-call-dce
# -ftree-ccp -ftree-ch -ftree-coalesce-vars -ftree-copy-prop
# -ftree-copyrename -ftree-cselim -ftree-dce -ftree-dominator-opts
# -ftree-dse -ftree-forwprop -ftree-fre -ftree-loop-distribute-patterns
# -ftree-loop-if-convert -ftree-loop-im -ftree-loop-ivcanon
# -ftree-loop-optimize -ftree-loop-vectorize -ftree-parallelize-loops=
# -ftree-partial-pre -ftree-phiprop -ftree-pre -ftree-pta -ftree-reassoc
# -ftree-scev-cprop -ftree-sink -ftree-slp-vectorize -ftree-slsr -ftree-sra
# -ftree-switch-conversion -ftree-tail-merge -ftree-ter -ftree-vrp
# -funit-at-a-time -funswitch-loops -funwind-tables -fverbose-asm
# -fzero-initialized-in-bss -m128bit-long-double -m64 -m80387
# -malign-stringops -mavx256-split-unaligned-load
# -mavx256-split-unaligned-store -mfancy-math-387 -mfp-ret-in-387 -mfxsr
# -mglibc -mieee-fp -mlong-double-80 -mmmx -mno-sse4 -mpush-args -mred-zone
# -msse -msse2 -mtls-direct-seg-refs -mvzeroupper

	.section	.text.unlikely._ZNKSt5ctypeIcE8do_widenEc,"axG",@progbits,_ZNKSt5ctypeIcE8do_widenEc,comdat
	.align 2
.LCOLDB0:
	.section	.text._ZNKSt5ctypeIcE8do_widenEc,"axG",@progbits,_ZNKSt5ctypeIcE8do_widenEc,comdat
.LHOTB0:
	.align 2
	.p2align 4,,15
	.weak	_ZNKSt5ctypeIcE8do_widenEc
	.type	_ZNKSt5ctypeIcE8do_widenEc, @function
_ZNKSt5ctypeIcE8do_widenEc:
.LFB1253:
	.cfi_startproc
	movl	%esi, %eax	# __c,
	ret
	.cfi_endproc
.LFE1253:
	.size	_ZNKSt5ctypeIcE8do_widenEc, .-_ZNKSt5ctypeIcE8do_widenEc
	.section	.text.unlikely._ZNKSt5ctypeIcE8do_widenEc,"axG",@progbits,_ZNKSt5ctypeIcE8do_widenEc,comdat
.LCOLDE0:
	.section	.text._ZNKSt5ctypeIcE8do_widenEc,"axG",@progbits,_ZNKSt5ctypeIcE8do_widenEc,comdat
.LHOTE0:
	.section	.text.unlikely._ZNSt23mersenne_twister_engineImLm64ELm312ELm156ELm31ELm13043109905998158313ELm29ELm6148914691236517205ELm17ELm8202884508482404352ELm37ELm18444473444759240704ELm43ELm6364136223846793005EEclEv,"axG",@progbits,_ZNSt23mersenne_twister_engineImLm64ELm312ELm156ELm31ELm13043109905998158313ELm29ELm6148914691236517205ELm17ELm8202884508482404352ELm37ELm18444473444759240704ELm43ELm6364136223846793005EEclEv,comdat
	.align 2
.LCOLDB1:
	.section	.text._ZNSt23mersenne_twister_engineImLm64ELm312ELm156ELm31ELm13043109905998158313ELm29ELm6148914691236517205ELm17ELm8202884508482404352ELm37ELm18444473444759240704ELm43ELm6364136223846793005EEclEv,"axG",@progbits,_ZNSt23mersenne_twister_engineImLm64ELm312ELm156ELm31ELm13043109905998158313ELm29ELm6148914691236517205ELm17ELm8202884508482404352ELm37ELm18444473444759240704ELm43ELm6364136223846793005EEclEv,comdat
.LHOTB1:
	.align 2
	.p2align 4,,15
	.weak	_ZNSt23mersenne_twister_engineImLm64ELm312ELm156ELm31ELm13043109905998158313ELm29ELm6148914691236517205ELm17ELm8202884508482404352ELm37ELm18444473444759240704ELm43ELm6364136223846793005EEclEv
	.type	_ZNSt23mersenne_twister_engineImLm64ELm312ELm156ELm31ELm13043109905998158313ELm29ELm6148914691236517205ELm17ELm8202884508482404352ELm37ELm18444473444759240704ELm43ELm6364136223846793005EEclEv, @function
_ZNSt23mersenne_twister_engineImLm64ELm312ELm156ELm31ELm13043109905998158313ELm29ELm6148914691236517205ELm17ELm8202884508482404352ELm37ELm18444473444759240704ELm43ELm6364136223846793005EEclEv:
.LFB7819:
	.cfi_startproc
	movq	2496(%rdi), %rax	# this_3(D)->_M_p, D.81785
	cmpq	$311, %rax	#, D.81785
	ja	.L3	#,
	movq	(%rdi,%rax,8), %rdx	# this_3(D)->_M_x, D.81785
	leaq	1(%rax), %rcx	#, D.81785
.L4:
	movq	%rcx, 2496(%rdi)	# D.81785, this_3(D)->_M_p
	movq	%rdx, %rcx	# D.81785, D.81785
	movabsq	$6148914691236517205, %rax	#, tmp175
	shrq	$29, %rcx	#, D.81785
	andq	%rcx, %rax	# D.81785, D.81785
	xorq	%rdx, %rax	# D.81785, __z
	movabsq	$8202884508482404352, %rdx	#, tmp177
	movq	%rax, %rcx	# __z, D.81785
	salq	$17, %rcx	#, D.81785
	andq	%rdx, %rcx	# tmp177, D.81785
	movabsq	$-2270628950310912, %rdx	#, tmp179
	xorq	%rax, %rcx	# __z, __z
	movq	%rcx, %rax	# __z, D.81785
	salq	$37, %rax	#, D.81785
	andq	%rdx, %rax	# tmp179, D.81785
	xorq	%rcx, %rax	# __z, __z
	movq	%rax, %rdx	# __z, D.81785
	shrq	$43, %rdx	#, D.81785
	xorq	%rdx, %rax	# D.81785, __z
	ret
	.p2align 4,,10
	.p2align 3
.L3:
	movq	(%rdi), %r8	# MEM[(long unsigned int *)this_3(D)], this___M_x_I_lsm0.72
	leaq	8(%rdi), %rcx	#, ivtmp.91
	leaq	1256(%rdi), %rdx	#, ivtmp.80
	movabsq	$-5403634167711393303, %r10	#, tmp184
	xorl	%r9d, %r9d	# tmp185
	.p2align 4,,10
	.p2align 3
.L5:
	movq	%r8, %rax	# this___M_x_I_lsm0.72, D.81785
	movq	(%rcx), %r8	# MEM[base: _38, offset: 0B], this___M_x_I_lsm0.72
	andq	$-2147483648, %rax	#, D.81785
	movq	%r8, %rsi	# this___M_x_I_lsm0.72, D.81785
	andl	$2147483647, %esi	#, D.81785
	orq	%rsi, %rax	# D.81785, __y
	movq	%r9, %rsi	# tmp185, D.81785
	testb	$1, %al	#, __y
	cmovne	%r10, %rsi	# tmp184,, D.81785
	xorq	1240(%rcx), %rsi	# MEM[base: _38, offset: 1240B], D.81785
	shrq	%rax	# D.81785
	addq	$8, %rcx	#, ivtmp.91
	xorq	%rsi, %rax	# D.81785, tmp159
	movq	%rax, -16(%rcx)	# tmp159, MEM[base: _38, offset: -8B]
	cmpq	%rcx, %rdx	# ivtmp.91, ivtmp.80
	jne	.L5	#,
	movq	1248(%rdi), %rsi	# MEM[(long unsigned int *)this_3(D) + 1248B], this___M_x_I_lsm0.71
	leaq	2496(%rdi), %r10	#, D.81789
	movabsq	$-5403634167711393303, %r9	#, tmp182
	xorl	%r8d, %r8d	# tmp183
	.p2align 4,,10
	.p2align 3
.L6:
	movq	%rsi, %rax	# this___M_x_I_lsm0.71, D.81785
	movq	(%rdx), %rsi	# MEM[base: _105, offset: 0B], this___M_x_I_lsm0.71
	andq	$-2147483648, %rax	#, D.81785
	movq	%rsi, %rcx	# this___M_x_I_lsm0.71, D.81785
	andl	$2147483647, %ecx	#, D.81785
	orq	%rcx, %rax	# D.81785, __y
	movq	%r8, %rcx	# tmp183, D.81785
	testb	$1, %al	#, __y
	cmovne	%r9, %rcx	# tmp182,, D.81785
	xorq	-1256(%rdx), %rcx	# MEM[base: _105, offset: -1256B], D.81785
	shrq	%rax	# D.81785
	addq	$8, %rdx	#, ivtmp.80
	xorq	%rcx, %rax	# D.81785, tmp167
	movq	%rax, -16(%rdx)	# tmp167, MEM[base: _105, offset: -8B]
	cmpq	%rdx, %r10	# ivtmp.80, D.81789
	jne	.L6	#,
	movq	(%rdi), %rdx	# this_3(D)->_M_x, D.81785
	movq	2488(%rdi), %rcx	# this_3(D)->_M_x, D.81785
	movabsq	$-5403634167711393303, %rsi	#, tmp181
	movq	%rdx, %rax	# D.81785, D.81785
	andq	$-2147483648, %rcx	#, D.81785
	andl	$2147483647, %eax	#, D.81785
	orq	%rcx, %rax	# D.81785, __y
	movq	%rax, %rcx	# __y, D.81785
	shrq	%rcx	# D.81785
	xorq	1240(%rdi), %rcx	# this_3(D)->_M_x, D.81785
	andl	$1, %eax	#, D.81785
	cmovne	%rsi, %rax	# D.81785,, tmp181, D.81785
	xorq	%rcx, %rax	# D.81785, tmp172
	movl	$1, %ecx	#, D.81785
	movq	%rax, 2488(%rdi)	# tmp172, this_3(D)->_M_x
	jmp	.L4	#
	.cfi_endproc
.LFE7819:
	.size	_ZNSt23mersenne_twister_engineImLm64ELm312ELm156ELm31ELm13043109905998158313ELm29ELm6148914691236517205ELm17ELm8202884508482404352ELm37ELm18444473444759240704ELm43ELm6364136223846793005EEclEv, .-_ZNSt23mersenne_twister_engineImLm64ELm312ELm156ELm31ELm13043109905998158313ELm29ELm6148914691236517205ELm17ELm8202884508482404352ELm37ELm18444473444759240704ELm43ELm6364136223846793005EEclEv
	.section	.text.unlikely._ZNSt23mersenne_twister_engineImLm64ELm312ELm156ELm31ELm13043109905998158313ELm29ELm6148914691236517205ELm17ELm8202884508482404352ELm37ELm18444473444759240704ELm43ELm6364136223846793005EEclEv,"axG",@progbits,_ZNSt23mersenne_twister_engineImLm64ELm312ELm156ELm31ELm13043109905998158313ELm29ELm6148914691236517205ELm17ELm8202884508482404352ELm37ELm18444473444759240704ELm43ELm6364136223846793005EEclEv,comdat
.LCOLDE1:
	.section	.text._ZNSt23mersenne_twister_engineImLm64ELm312ELm156ELm31ELm13043109905998158313ELm29ELm6148914691236517205ELm17ELm8202884508482404352ELm37ELm18444473444759240704ELm43ELm6364136223846793005EEclEv,"axG",@progbits,_ZNSt23mersenne_twister_engineImLm64ELm312ELm156ELm31ELm13043109905998158313ELm29ELm6148914691236517205ELm17ELm8202884508482404352ELm37ELm18444473444759240704ELm43ELm6364136223846793005EEclEv,comdat
.LHOTE1:
	.section	.rodata.str1.1,"aMS",@progbits,1
.LC2:
	.string	"seed ["
.LC3:
	.string	"] nr.:"
.LC4:
	.string	"raw mt start   "
.LC5:
	.string	" "
.LC6:
	.string	"RndBuff1 start "
.LC7:
	.string	"RndBuff2 start "
.LC8:
	.string	"RndBuff3 start "
.LC9:
	.string	"RndBuff4 start "
	.section	.text.unlikely,"ax",@progbits
.LCOLDB10:
	.section	.text.startup,"ax",@progbits
.LHOTB10:
	.p2align 4,,15
	.globl	main
	.type	main, @function
main:
.LFB7692:
	.cfi_startproc
	.cfi_personality 0x3,__gxx_personality_v0
	.cfi_lsda 0x3,.LLSDA7692
	pushq	%r15	#
	.cfi_def_cfa_offset 16
	.cfi_offset 15, -16
	pushq	%r14	#
	.cfi_def_cfa_offset 24
	.cfi_offset 14, -24
	movl	$1, %ecx	#, __i
	pushq	%r13	#
	.cfi_def_cfa_offset 32
	.cfi_offset 13, -32
	pushq	%r12	#
	.cfi_def_cfa_offset 40
	.cfi_offset 12, -40
	movabsq	$6364136223846793005, %rsi	#, tmp593
	pushq	%rbp	#
	.cfi_def_cfa_offset 48
	.cfi_offset 6, -48
	pushq	%rbx	#
	.cfi_def_cfa_offset 56
	.cfi_offset 3, -56
	subq	$28856, %rsp	#,
	.cfi_def_cfa_offset 28912
	leaq	160(%rsp), %rbx	#, tmp563
	movq	$5489, 160(%rsp)	#, rnd._M_x
	movq	%fs:40, %rax	#, tmp662
	movq	%rax, 28840(%rsp)	# tmp662, D.82136
	xorl	%eax, %eax	# tmp662
	movl	$5489, %eax	#, rnd__M_x_I_lsm0.120
.L14:
	movq	%rax, %rdx	# rnd__M_x_I_lsm0.120, D.82118
	shrq	$62, %rdx	#, D.82118
	xorq	%rdx, %rax	# D.82118, __x
	imulq	%rsi, %rax	# tmp593, __x
	addq	%rcx, %rax	# __i, __x
	movq	%rax, (%rbx,%rcx,8)	# __x, MEM[symbol: rnd, index: __i_273, step: 8, offset: 0B]
	addq	$1, %rcx	#, __i
	cmpq	$312, %rcx	#, __i
	jne	.L14	#,
	movq	$312, 2656(%rsp)	#, rnd._M_p
	movq	$1234567890, 2672(%rsp)	#, rndSeed._M_x
	movl	$1234567890, %eax	#, rndSeed__M_x_I_lsm0.119
	movl	$1, %ecx	#, __i
	movabsq	$6364136223846793005, %rsi	#, tmp592
.L15:
	movq	%rax, %rdx	# rndSeed__M_x_I_lsm0.119, D.82118
	shrq	$62, %rdx	#, D.82118
	xorq	%rdx, %rax	# D.82118, __x
	imulq	%rsi, %rax	# tmp592, __x
	addq	%rcx, %rax	# __i, __x
	movq	%rax, 2672(%rsp,%rcx,8)	# __x, MEM[symbol: rndSeed, index: __i_657, step: 8, offset: 0B]
	addq	$1, %rcx	#, __i
	cmpq	$312, %rcx	#, __i
	jne	.L15	#,
	leaq	22020(%rsp), %rax	#, tmp591
	leaq	16992(%rsp), %rbp	#, D.82133
	movq	$312, 5168(%rsp)	#, rndSeed._M_p
	movq	$0, 64(%rsp)	#, %sfp
	movq	$0, 80(%rsp)	#, %sfp
	movq	$0, 88(%rsp)	#, %sfp
	movq	$0, 72(%rsp)	#, %sfp
	movq	$0, 56(%rsp)	#, %sfp
	movl	$0, 52(%rsp)	#, %sfp
	movq	%rax, 32(%rsp)	# tmp591, %sfp
.L79:
	leaq	2672(%rsp), %rdi	#, tmp673
	call	_ZNSt23mersenne_twister_engineImLm64ELm312ELm156ELm31ELm13043109905998158313ELm29ELm6148914691236517205ELm17ELm8202884508482404352ELm37ELm18444473444759240704ELm43ELm6364136223846793005EEclEv	#
	addl	$1, 52(%rsp)	#, %sfp
	movl	$6, %edx	#,
	movq	%rax, %r15	#, D.82116
	movl	52(%rsp), %r14d	# %sfp, test
	movl	$.LC2, %esi	#,
	movl	$_ZSt4cout, %edi	#,
	movq	%rax, 40(%rsp)	# D.82116, %sfp
.LEHB0:
	call	_ZSt16__ostream_insertIcSt11char_traitsIcEERSt13basic_ostreamIT_T0_ES6_PKS3_l	#
	movq	%r15, %rsi	# D.82116,
	movl	$_ZSt4cout, %edi	#,
	call	_ZNSo9_M_insertIyEERSoT_	#
	movl	$6, %edx	#,
	movq	%rax, %r12	#, D.82117
	movl	$.LC3, %esi	#,
	movq	%rax, %rdi	# D.82117,
	call	_ZSt16__ostream_insertIcSt11char_traitsIcEERSt13basic_ostreamIT_T0_ES6_PKS3_l	#
	movq	%r12, %rdi	# D.82117,
	movl	%r14d, %esi	# test,
	call	_ZNSo9_M_insertImEERSoT_	#
	movq	%rax, %r13	#, D.82117
	movq	(%rax), %rax	# MEM[(struct basic_ostream *)_136]._vptr.basic_ostream, MEM[(struct basic_ostream *)_136]._vptr.basic_ostream
	movq	-24(%rax), %rax	# MEM[(long int *)_28 + -24B], MEM[(long int *)_28 + -24B]
	movq	240(%r13,%rax), %r12	# MEM[(const struct basic_ios *)_277]._M_ctype, D.82125
	testq	%r12, %r12	# D.82125
	je	.L22	#,
	cmpb	$0, 56(%r12)	#, MEM[(const struct ctype *)_198]._M_widen_ok
	je	.L17	#,
	movsbl	67(%r12), %esi	# MEM[(const struct ctype *)_198]._M_widen, D.82115
.L18:
	movq	%r13, %rdi	# D.82117,
	call	_ZNSo3putEc	#
	movq	%rax, %rdi	# D.82129,
	call	_ZNSo5flushEv	#
	movl	$.LC4, %esi	#,
	movl	$15, %edx	#,
	movl	$_ZSt4cout, %edi	#,
	call	_ZSt16__ostream_insertIcSt11char_traitsIcEERSt13basic_ostreamIT_T0_ES6_PKS3_l	#
	movq	40(%rsp), %rax	# %sfp, D.82116
	movl	$1, %ecx	#, __i
	movabsq	$6364136223846793005, %rsi	#, tmp587
	movq	%rax, 160(%rsp)	# D.82116, rnd._M_x
	.p2align 4,,10
	.p2align 3
.L19:
	movq	%rax, %rdx	# rnd__M_x_I_lsm0.121, D.82118
	shrq	$62, %rdx	#, D.82118
	xorq	%rdx, %rax	# D.82118, __x
	imulq	%rsi, %rax	# tmp587, __x
	addq	%rcx, %rax	# __i, __x
	movq	%rax, (%rbx,%rcx,8)	# __x, MEM[symbol: rnd, index: __i_274, step: 8, offset: 0B]
	addq	$1, %rcx	#, __i
	cmpq	$312, %rcx	#, __i
	jne	.L19	#,
	xorl	%edi, %edi	#
	movq	$312, 2656(%rsp)	#, rnd._M_p
	movabsq	$4294967296, %r12	#, D.82120
	call	time	#
	xorl	%r13d, %r13d	# sum
	movq	%rax, %r15	#, start
	movabsq	$1008806316530991105, %r14	#, tmp586
	.p2align 4,,10
	.p2align 3
.L20:
	movq	%rbx, %rdi	# tmp563,
	call	_ZNSt23mersenne_twister_engineImLm64ELm312ELm156ELm31ELm13043109905998158313ELm29ELm6148914691236517205ELm17ELm8202884508482404352ELm37ELm18444473444759240704ELm43ELm6364136223846793005EEclEv	#
	cmpq	$-17, %rax	#, __ret
	ja	.L20	#,
	shrq	$2, %rax	#, tmp419
	mulq	%r14	# tmp586
	shrq	$53, %rdx	#, __ret
	subq	$1, %r12	#, D.82120
	leaq	11(%r13,%rdx), %r13	#, sum
	jne	.L20	#,
	xorl	%edi, %edi	#
	call	time	#
	subq	%r15, %rax	# start, D.82122
	addq	%rax, 56(%rsp)	# D.82122, %sfp
	movq	%r13, %rsi	# sum,
	movq	56(%rsp), %r14	# %sfp, times$0
	movl	$_ZSt4cout, %edi	#,
	call	_ZNSo9_M_insertIyEERSoT_	#
	movl	$1, %edx	#,
	movq	%rax, %r12	#, D.82117
	movl	$.LC5, %esi	#,
	movq	%rax, %rdi	# D.82117,
	call	_ZSt16__ostream_insertIcSt11char_traitsIcEERSt13basic_ostreamIT_T0_ES6_PKS3_l	#
	movq	%r12, %rdi	# D.82117,
	movq	%r14, %rsi	# times$0,
	call	_ZNSo9_M_insertIlEERSoT_	#
	movq	%rax, %r13	#, D.82117
	movq	(%rax), %rax	# MEM[(struct basic_ostream *)_41]._vptr.basic_ostream, MEM[(struct basic_ostream *)_41]._vptr.basic_ostream
	movq	-24(%rax), %rax	# MEM[(long int *)_44 + -24B], MEM[(long int *)_44 + -24B]
	movq	240(%r13,%rax), %r12	# MEM[(const struct basic_ios *)_320]._M_ctype, D.82125
	testq	%r12, %r12	# D.82125
	je	.L22	#,
	cmpb	$0, 56(%r12)	#, MEM[(const struct ctype *)_208]._M_widen_ok
	je	.L23	#,
	movsbl	67(%r12), %esi	# MEM[(const struct ctype *)_208]._M_widen, D.82115
.L24:
	movq	%r13, %rdi	# D.82117,
	call	_ZNSo3putEc	#
	movq	%rax, %rdi	# D.82129,
	call	_ZNSo5flushEv	#
	movl	$.LC6, %esi	#,
	movl	$15, %edx	#,
	movl	$_ZSt4cout, %edi	#,
	call	_ZSt16__ostream_insertIcSt11char_traitsIcEERSt13basic_ostreamIT_T0_ES6_PKS3_l	#
	movq	40(%rsp), %rax	# %sfp, D.82116
	movl	$1, %ecx	#, __i
	movabsq	$6364136223846793005, %rsi	#, tmp585
	movq	%rax, 160(%rsp)	# D.82116, rnd._M_x
	.p2align 4,,10
	.p2align 3
.L25:
	movq	%rax, %rdx	# rnd__M_x_I_lsm0.122, D.82118
	shrq	$62, %rdx	#, D.82118
	xorq	%rdx, %rax	# D.82118, __x
	imulq	%rsi, %rax	# tmp585, __x
	addq	%rcx, %rax	# __i, __x
	movq	%rax, (%rbx,%rcx,8)	# __x, MEM[symbol: rnd, index: __i_651, step: 8, offset: 0B]
	addq	$1, %rcx	#, __i
	cmpq	$312, %rcx	#, __i
	jne	.L25	#,
	xorl	%edi, %edi	#
	movq	$312, 2656(%rsp)	#, rnd._M_p
	xorl	%r13d, %r13d	# ivtmp.225
	call	time	#
	movl	$2948, %r14d	#, rndBuf$i2
	movq	%rax, 24(%rsp)	#, %sfp
	movl	$1249, 8(%rsp)	#, %sfp
	movq	$0, 16(%rsp)	#, %sfp
	movabsq	$5270498306774157605, %r12	#, tmp584
	jmp	.L34	#
	.p2align 4,,10
	.p2align 3
.L27:
	movl	8(%rsp), %edi	# %sfp, rndBuf$i1
	movl	%edi, %eax	# rndBuf$i1,
	cmpl	$1249, %eax	#, rndBuf$i1
	je	.L85	#,
	addl	$1, %edi	#, rndBuf$i1
	movl	%edi, 8(%rsp)	# rndBuf$i1, %sfp
.L33:
	movl	5200(%rsp,%rax,4), %eax	# rndBuf.buff,
	addq	$1, %r13	#, ivtmp.225
	addq	%rax, 16(%rsp)	# D.82120, %sfp
	movabsq	$4294967296, %rax	#, tmp451
	cmpq	%rax, %r13	# tmp451, ivtmp.225
	je	.L128	#,
.L34:
	movl	8(%rsp), %eax	# %sfp, rndBuf$i1
	movl	%r14d, 16996(%rsp)	# rndBuf$i2, MEM[(struct RndBuff1 *)&rndBuf + 11812B]
	movl	%r13d, (%rsp)	# ivtmp.225, %sfp
	movl	%eax, 16992(%rsp)	# rndBuf$i1, MEM[(struct RndBuff1 *)&rndBuf + 11808B]
	movabsq	$12661563589857, %rax	#, tmp683
	cmpq	%rax, 16992(%rsp)	# tmp683, rndBuf
	je	.L26	#,
.L29:
	testb	$1, (%rsp)	#, %sfp
	jne	.L27	#,
	cmpl	$2948, %r14d	#, rndBuf$i2
	je	.L86	#,
	movl	%r14d, %eax	# rndBuf$i2,
	addl	$1, %r14d	#, rndBuf$i2
	jmp	.L33	#
	.p2align 4,,10
	.p2align 3
.L85:
	movl	$1, 8(%rsp)	#, %sfp
	xorl	%eax, %eax	#
	jmp	.L33	#
	.p2align 4,,10
	.p2align 3
.L86:
	movl	$1250, %r14d	#, rndBuf$i2
	movl	$1249, %eax	#,
	jmp	.L33	#
	.p2align 4,,10
	.p2align 3
.L26:
	leaq	5200(%rsp), %r15	#, ivtmp.221
	.p2align 4,,10
	.p2align 3
.L30:
	movq	%rbx, %rdi	# tmp563,
	addq	$4, %r15	#, ivtmp.221
	call	_ZNSt23mersenne_twister_engineImLm64ELm312ELm156ELm31ELm13043109905998158313ELm29ELm6148914691236517205ELm17ELm8202884508482404352ELm37ELm18444473444759240704ELm43ELm6364136223846793005EEclEv	#
	movq	%rax, %rdx	# D.82118, tmp437
	movq	%rax, %rcx	#, D.82118
	shrq	$2, %rdx	#, tmp437
	movq	%rdx, %rax	# tmp437, tmp664
	mulq	%r12	# tmp584
	shrq	%rdx	# tmp436
	movq	%rdx, %rsi	# tmp436, tmp442
	leaq	(%rcx,%rdx,4), %rax	#, tmp443
	salq	$5, %rsi	#, tmp442
	subq	%rsi, %rax	# tmp442, D.82118
	addl	$11, %eax	#, tmp445
	movl	%eax, -4(%r15)	# tmp445, MEM[base: _527, offset: 0B]
	cmpq	%r15, %rbp	# ivtmp.221, D.82133
	jne	.L30	#,
	jmp	.L29	#
.L128:
	xorl	%edi, %edi	#
	call	time	#
	subq	24(%rsp), %rax	# %sfp, D.82122
	movq	16(%rsp), %rsi	# %sfp,
	movl	$_ZSt4cout, %edi	#,
	addq	%rax, 72(%rsp)	# D.82122, %sfp
	movq	72(%rsp), %r14	# %sfp, times$1
	call	_ZNSo9_M_insertIyEERSoT_	#
	movl	$1, %edx	#,
	movq	%rax, %r12	#, D.82117
	movl	$.LC5, %esi	#,
	movq	%rax, %rdi	# D.82117,
	call	_ZSt16__ostream_insertIcSt11char_traitsIcEERSt13basic_ostreamIT_T0_ES6_PKS3_l	#
	movq	%r12, %rdi	# D.82117,
	movq	%r14, %rsi	# times$1,
	call	_ZNSo9_M_insertIlEERSoT_	#
	movq	%rax, %r13	#, D.82117
	movq	(%rax), %rax	# MEM[(struct basic_ostream *)_59]._vptr.basic_ostream, MEM[(struct basic_ostream *)_59]._vptr.basic_ostream
	movq	-24(%rax), %rax	# MEM[(long int *)_62 + -24B], MEM[(long int *)_62 + -24B]
	movq	240(%r13,%rax), %r12	# MEM[(const struct basic_ios *)_373]._M_ctype, D.82125
	testq	%r12, %r12	# D.82125
	je	.L22	#,
	cmpb	$0, 56(%r12)	#, MEM[(const struct ctype *)_221]._M_widen_ok
	je	.L35	#,
	movsbl	67(%r12), %esi	# MEM[(const struct ctype *)_221]._M_widen, D.82115
.L36:
	movq	%r13, %rdi	# D.82117,
	call	_ZNSo3putEc	#
	movq	%rax, %rdi	# D.82129,
	call	_ZNSo5flushEv	#
	movl	$.LC7, %esi	#,
	movl	$15, %edx	#,
	movl	$_ZSt4cout, %edi	#,
	call	_ZSt16__ostream_insertIcSt11char_traitsIcEERSt13basic_ostreamIT_T0_ES6_PKS3_l	#
	movq	40(%rsp), %rax	# %sfp, D.82116
	movl	$1, %ecx	#, __i
	movabsq	$6364136223846793005, %rsi	#, tmp579
	movq	%rax, 160(%rsp)	# D.82116, rnd._M_x
	.p2align 4,,10
	.p2align 3
.L37:
	movq	%rax, %rdx	# rnd__M_x_I_lsm0.123, D.82118
	shrq	$62, %rdx	#, D.82118
	xorq	%rdx, %rax	# D.82118, __x
	imulq	%rsi, %rax	# tmp579, __x
	addq	%rcx, %rax	# __i, __x
	movq	%rax, (%rbx,%rcx,8)	# __x, MEM[symbol: rnd, index: __i_327, step: 8, offset: 0B]
	addq	$1, %rcx	#, __i
	cmpq	$312, %rcx	#, __i
	jne	.L37	#,
	movl	$11792, %edi	#,
	movq	$312, 2656(%rsp)	#, rnd._M_p
	xorl	%r14d, %r14d	# ivtmp.200
	call	_Znam	#
.LEHE0:
	xorl	%edi, %edi	#
	movq	%rax, %r15	#, rndBuf$buff
	movq	%rax, 16(%rsp)	# rndBuf$buff, %sfp
	call	time	#
	movl	$2948, %edi	#, rndBuf$i2
	movq	%rbp, 104(%rsp)	# D.82133, %sfp
	movq	%rax, 96(%rsp)	#, %sfp
	movl	$1249, (%rsp)	#, %sfp
	movq	$0, 24(%rsp)	#, %sfp
	leaq	11792(%r15), %r13	#, D.82133
	movabsq	$5270498306774157605, %r12	#, tmp577
	movl	%edi, %ebp	# rndBuf$i2, rndBuf$i2
	jmp	.L46	#
	.p2align 4,,10
	.p2align 3
.L39:
	movl	(%rsp), %edi	# %sfp, rndBuf$i1
	movl	%edi, %eax	# rndBuf$i1,
	cmpl	$1249, %eax	#, rndBuf$i1
	je	.L88	#,
	addl	$1, %edi	#, rndBuf$i1
	salq	$2, %rax	#, D.82118
	movl	%edi, (%rsp)	# rndBuf$i1, %sfp
.L45:
	movq	16(%rsp), %rdi	# %sfp, rndBuf$buff
	addq	$1, %r14	#, ivtmp.200
	movl	(%rdi,%rax), %eax	#* D.82118,
	addq	%rax, 24(%rsp)	# D.82120, %sfp
	movabsq	$4294967296, %rax	#, tmp711
	cmpq	%rax, %r14	# tmp711, ivtmp.200
	je	.L129	#,
.L46:
	movl	(%rsp), %eax	# %sfp, rndBuf$i1
	movl	%ebp, 140(%rsp)	# rndBuf$i2, MEM[(struct RndBuff2 *)&rndBuf + 28B]
	movl	%r14d, 8(%rsp)	# ivtmp.200, %sfp
	movl	%eax, 136(%rsp)	# rndBuf$i1, MEM[(struct RndBuff2 *)&rndBuf + 24B]
	movabsq	$12661563589857, %rax	#, tmp699
	cmpq	%rax, 136(%rsp)	# tmp699, rndBuf
	je	.L38	#,
.L41:
	testb	$1, 8(%rsp)	#, %sfp
	jne	.L39	#,
	cmpl	$2948, %ebp	#, rndBuf$i2
	je	.L89	#,
	movl	%ebp, %eax	# rndBuf$i2, D.82118
	addl	$1, %ebp	#, rndBuf$i2
	salq	$2, %rax	#, D.82118
	jmp	.L45	#
	.p2align 4,,10
	.p2align 3
.L88:
	xorl	%eax, %eax	# D.82118
	movl	$1, (%rsp)	#, %sfp
	jmp	.L45	#
	.p2align 4,,10
	.p2align 3
.L89:
	movl	$4996, %eax	#, D.82118
	movl	$1250, %ebp	#, rndBuf$i2
	jmp	.L45	#
	.p2align 4,,10
	.p2align 3
.L38:
	movq	16(%rsp), %r15	# %sfp, ivtmp.197
	.p2align 4,,10
	.p2align 3
.L42:
	movq	%rbx, %rdi	# tmp563,
	addq	$4, %r15	#, ivtmp.197
	call	_ZNSt23mersenne_twister_engineImLm64ELm312ELm156ELm31ELm13043109905998158313ELm29ELm6148914691236517205ELm17ELm8202884508482404352ELm37ELm18444473444759240704ELm43ELm6364136223846793005EEclEv	#
	movq	%rax, %rdx	# D.82118, tmp464
	movq	%rax, %rcx	#, D.82118
	shrq	$2, %rdx	#, tmp464
	movq	%rdx, %rax	# tmp464, tmp665
	mulq	%r12	# tmp577
	shrq	%rdx	# tmp463
	movq	%rdx, %rsi	# tmp463, tmp469
	leaq	(%rcx,%rdx,4), %rax	#, tmp470
	salq	$5, %rsi	#, tmp469
	subq	%rsi, %rax	# tmp469, D.82118
	addl	$11, %eax	#, tmp472
	movl	%eax, -4(%r15)	# tmp472, MEM[base: _624, offset: 0B]
	cmpq	%r13, %r15	# D.82133, ivtmp.197
	jne	.L42	#,
	jmp	.L41	#
.L129:
	xorl	%edi, %edi	#
	movq	104(%rsp), %rbp	# %sfp, D.82133
	call	time	#
	movq	24(%rsp), %rsi	# %sfp,
	subq	96(%rsp), %rax	# %sfp, D.82122
	movl	$_ZSt4cout, %edi	#,
	addq	%rax, 88(%rsp)	# D.82122, %sfp
	movq	88(%rsp), %r14	# %sfp, times$2
.LEHB1:
	call	_ZNSo9_M_insertIyEERSoT_	#
	movl	$1, %edx	#,
	movl	$.LC5, %esi	#,
	movq	%rax, %rdi	# D.82117,
	movq	%rax, %r12	#, D.82117
	call	_ZSt16__ostream_insertIcSt11char_traitsIcEERSt13basic_ostreamIT_T0_ES6_PKS3_l	#
	movq	%r14, %rsi	# times$2,
	movq	%r12, %rdi	# D.82117,
	call	_ZNSo9_M_insertIlEERSoT_	#
	movq	%rax, %r13	#, D.82117
	movq	(%rax), %rax	# MEM[(struct basic_ostream *)_77]._vptr.basic_ostream, MEM[(struct basic_ostream *)_77]._vptr.basic_ostream
	movq	-24(%rax), %rax	# MEM[(long int *)_434 + -24B], MEM[(long int *)_434 + -24B]
	movq	240(%r13,%rax), %r12	# MEM[(const struct basic_ios *)_437]._M_ctype, D.82125
	testq	%r12, %r12	# D.82125
	je	.L130	#,
	cmpb	$0, 56(%r12)	#, MEM[(const struct ctype *)_236]._M_widen_ok
	je	.L48	#,
	movsbl	67(%r12), %esi	# MEM[(const struct ctype *)_236]._M_widen, D.82115
.L49:
	movq	%r13, %rdi	# D.82117,
	call	_ZNSo3putEc	#
	movq	%rax, %rdi	# D.82129,
	call	_ZNSo5flushEv	#
.LEHE1:
	movq	16(%rsp), %rdi	# %sfp,
	call	_ZdaPv	#
	movl	$.LC8, %esi	#,
	movl	$15, %edx	#,
	movl	$_ZSt4cout, %edi	#,
.LEHB2:
	call	_ZSt16__ostream_insertIcSt11char_traitsIcEERSt13basic_ostreamIT_T0_ES6_PKS3_l	#
	movq	40(%rsp), %rax	# %sfp, D.82116
	movl	$1, %ecx	#, __i
	movabsq	$6364136223846793005, %rsi	#, tmp573
	movq	%rax, 160(%rsp)	# D.82116, rnd._M_x
	.p2align 4,,10
	.p2align 3
.L50:
	movq	%rax, %rdx	# rnd__M_x_I_lsm0.124, D.82118
	shrq	$62, %rdx	#, D.82118
	xorq	%rdx, %rax	# D.82118, __x
	imulq	%rsi, %rax	# tmp573, __x
	addq	%rcx, %rax	# __i, __x
	movq	%rax, (%rbx,%rcx,8)	# __x, MEM[symbol: rnd, index: __i_332, step: 8, offset: 0B]
	addq	$1, %rcx	#, __i
	cmpq	$312, %rcx	#, __i
	jne	.L50	#,
	movl	$11792, %edi	#,
	movq	$312, 2656(%rsp)	#, rnd._M_p
	xorl	%r12d, %r12d	# sum
	call	_Znam	#
.LEHE2:
	leaq	4996(%rax), %rdi	#, rndBuf$i2
	movq	%rax, 8(%rsp)	# rndBuf$i2, %sfp
	addq	$11792, %rax	#, rndBuf$i2
	movq	%rax, %r15	# rndBuf$i2, rndBuf$i2
	movq	%rdi, %r14	# rndBuf$i2, rndBuf$i2
	movq	%rdi, (%rsp)	# rndBuf$i2, %sfp
	xorl	%edi, %edi	#
	call	time	#
	movq	%r14, %rdi	# rndBuf$i2, rndBuf$i2
	movq	%rax, 16(%rsp)	#, %sfp
	movq	%r15, %rax	# rndBuf$i2, rndBuf$i2
	xorl	%r15d, %r15d	# ivtmp.176
	movq	%rbp, 24(%rsp)	# D.82133, %sfp
	movq	%rdi, %r13	# rndBuf$i2, rndBuf$i2
	movq	%r15, %r14	# ivtmp.176, ivtmp.176
	movq	%rax, %rbp	# rndBuf$i2, rndBuf$i2
	movq	%rax, %r15	# rndBuf$i2, rndBuf$i2
	jmp	.L61	#
	.p2align 4,,10
	.p2align 3
.L133:
	cmpq	%r13, (%rsp)	# rndBuf$i2, %sfp
	je	.L131	#,
.L52:
	movl	0(%r13), %eax	# *rndBuf$i2_688,
	addq	$4, %r13	#, rndBuf$i2
.L56:
	addq	%rax, %r12	# D.82120, sum
	addq	$1, %r14	#, ivtmp.176
	movabsq	$4294967296, %rax	#, tmp728
	cmpq	%rax, %r14	# tmp728, ivtmp.176
	je	.L132	#,
.L61:
	testb	$1, %r14b	#, ivtmp.176
	jne	.L133	#,
	cmpq	%r15, %rbp	# rndBuf$i2, rndBuf$i2
	je	.L134	#,
.L57:
	movl	(%r15), %eax	# *rndBuf$i2_232,
	addq	$4, %r15	#, rndBuf$i2
	jmp	.L56	#
.L131:
	cmpq	%r15, %rbp	# rndBuf$i2, rndBuf$i2
	je	.L53	#,
.L54:
	movq	8(%rsp), %r13	# %sfp, rndBuf$i2
	jmp	.L52	#
.L134:
	cmpq	%r13, (%rsp)	# rndBuf$i2, %sfp
	je	.L58	#,
.L59:
	movq	(%rsp), %r15	# %sfp, rndBuf$i2
	jmp	.L57	#
.L132:
	xorl	%edi, %edi	#
	movq	24(%rsp), %rbp	# %sfp, D.82133
	call	time	#
	subq	16(%rsp), %rax	# %sfp, D.82122
	movq	%r12, %rsi	# sum,
	movl	$_ZSt4cout, %edi	#,
	addq	%rax, 80(%rsp)	# D.82122, %sfp
	movq	80(%rsp), %r14	# %sfp, times$3
.LEHB3:
	call	_ZNSo9_M_insertIyEERSoT_	#
	movl	$1, %edx	#,
	movl	$.LC5, %esi	#,
	movq	%rax, %rdi	# D.82117,
	movq	%rax, %r12	#, D.82117
	call	_ZSt16__ostream_insertIcSt11char_traitsIcEERSt13basic_ostreamIT_T0_ES6_PKS3_l	#
	movq	%r14, %rsi	# times$3,
	movq	%r12, %rdi	# D.82117,
	call	_ZNSo9_M_insertIlEERSoT_	#
	movq	%rax, %r13	#, D.82117
	movq	(%rax), %rax	# MEM[(struct basic_ostream *)_96]._vptr.basic_ostream, MEM[(struct basic_ostream *)_96]._vptr.basic_ostream
	movq	-24(%rax), %rax	# MEM[(long int *)_517 + -24B], MEM[(long int *)_517 + -24B]
	movq	240(%r13,%rax), %r12	# MEM[(const struct basic_ios *)_520]._M_ctype, D.82125
	testq	%r12, %r12	# D.82125
	je	.L135	#,
	cmpb	$0, 56(%r12)	#, MEM[(const struct ctype *)_253]._M_widen_ok
	je	.L63	#,
	movsbl	67(%r12), %esi	# MEM[(const struct ctype *)_253]._M_widen, D.82115
.L64:
	movq	%r13, %rdi	# D.82117,
	call	_ZNSo3putEc	#
	movq	%rax, %rdi	# D.82129,
	call	_ZNSo5flushEv	#
.LEHE3:
	movq	8(%rsp), %rdi	# %sfp,
	call	_ZdaPv	#
	movl	$.LC9, %esi	#,
	movl	$15, %edx	#,
	movl	$_ZSt4cout, %edi	#,
.LEHB4:
	call	_ZSt16__ostream_insertIcSt11char_traitsIcEERSt13basic_ostreamIT_T0_ES6_PKS3_l	#
	movq	40(%rsp), %rax	# %sfp, D.82116
	movl	$1, %ecx	#, __i
	movabsq	$6364136223846793005, %rsi	#, tmp568
	movq	%rax, 160(%rsp)	# D.82116, rnd._M_x
	.p2align 4,,10
	.p2align 3
.L65:
	movq	%rax, %rdx	# rnd__M_x_I_lsm0.125, D.82118
	shrq	$62, %rdx	#, D.82118
	xorq	%rdx, %rax	# D.82118, __x
	imulq	%rsi, %rax	# tmp568, __x
	addq	%rcx, %rax	# __i, __x
	movq	%rax, (%rbx,%rcx,8)	# __x, MEM[symbol: rnd, index: __i_339, step: 8, offset: 0B]
	addq	$1, %rcx	#, __i
	cmpq	$312, %rcx	#, __i
	jne	.L65	#,
	movq	32(%rsp), %rax	# %sfp, tmp591
	leaq	28816(%rsp), %r14	#, tmp521
	xorl	%edi, %edi	#
	movq	$312, 2656(%rsp)	#, rnd._M_p
	movq	%rbx, 17008(%rsp)	# tmp563, rndBuf.rnd
	movabsq	$4294967296, %r12	#, D.82120
	movl	$11, 17016(%rsp)	#, rndBuf.min
	movl	$38, 17020(%rsp)	#, rndBuf.max
	xorl	%r13d, %r13d	# sum
	movq	%rax, 28816(%rsp)	# tmp591, rndBuf.i1
	movq	%r14, 28824(%rsp)	# tmp521, rndBuf.i2
	movl	$0, 28832(%rsp)	#, rndBuf.select
	call	time	#
	movq	%rbp, 8(%rsp)	# D.82133, %sfp
	movq	%rax, (%rsp)	#, %sfp
	jmp	.L76	#
	.p2align 4,,10
	.p2align 3
.L138:
	movq	28816(%rsp), %rax	# rndBuf.i1, D.82124
	cmpq	32(%rsp), %rax	# %sfp, D.82124
	je	.L136	#,
.L67:
	leaq	4(%rax), %rdx	#, tmp539
	movl	(%rax), %eax	# *_758,
	movq	%rdx, 28816(%rsp)	# tmp539, rndBuf.i1
	addq	%rax, %r13	# D.82120, sum
	subq	$1, %r12	#, D.82120
	je	.L137	#,
.L76:
	movl	28832(%rsp), %eax	# rndBuf.select, D.82123
	leal	1(%rax), %edx	#, tmp522
	testb	$1, %al	#, D.82123
	movl	%edx, 28832(%rsp)	# tmp522, rndBuf.select
	jne	.L138	#,
	movq	28824(%rsp), %rbp	# rndBuf.i2, D.82124
	cmpq	%r14, %rbp	# tmp566, D.82124
	je	.L139	#,
.L72:
	leaq	4(%rbp), %rax	#, tmp555
	movq	%rax, 28824(%rsp)	# tmp555, rndBuf.i2
	movl	0(%rbp), %eax	# *_756,
	addq	%rax, %r13	# D.82120, sum
	subq	$1, %r12	#, D.82120
	jne	.L76	#,
.L137:
	xorl	%edi, %edi	#
	movq	8(%rsp), %rbp	# %sfp, D.82133
	call	time	#
	subq	(%rsp), %rax	# %sfp, D.82122
	movq	%r13, %rsi	# sum,
	movl	$_ZSt4cout, %edi	#,
	addq	%rax, 64(%rsp)	# D.82122, %sfp
	movq	64(%rsp), %r14	# %sfp, times$4
	call	_ZNSo9_M_insertIyEERSoT_	#
	movl	$1, %edx	#,
	movq	%rax, %r12	#, D.82117
	movl	$.LC5, %esi	#,
	movq	%rax, %rdi	# D.82117,
	call	_ZSt16__ostream_insertIcSt11char_traitsIcEERSt13basic_ostreamIT_T0_ES6_PKS3_l	#
	movq	%r12, %rdi	# D.82117,
	movq	%r14, %rsi	# times$4,
	call	_ZNSo9_M_insertIlEERSoT_	#
	movq	%rax, %r13	#, D.82117
	movq	(%rax), %rax	# MEM[(struct basic_ostream *)_114]._vptr.basic_ostream, MEM[(struct basic_ostream *)_114]._vptr.basic_ostream
	movq	-24(%rax), %rax	# MEM[(long int *)_588 + -24B], MEM[(long int *)_588 + -24B]
	movq	240(%r13,%rax), %r12	# MEM[(const struct basic_ios *)_591]._M_ctype, D.82125
	testq	%r12, %r12	# D.82125
	je	.L22	#,
	cmpb	$0, 56(%r12)	#, MEM[(const struct ctype *)_268]._M_widen_ok
	je	.L77	#,
	movsbl	67(%r12), %esi	# MEM[(const struct ctype *)_268]._M_widen, D.82115
.L78:
	movq	%r13, %rdi	# D.82117,
	call	_ZNSo3putEc	#
	movq	%rax, %rdi	# D.82129,
	call	_ZNSo5flushEv	#
	jmp	.L79	#
.L136:
	cmpq	%r14, 28824(%rsp)	# tmp566, rndBuf.i2
	je	.L68	#,
.L69:
	leaq	17024(%rsp), %rax	#, D.82124
	jmp	.L67	#
.L139:
	movq	32(%rsp), %rax	# %sfp, tmp591
	cmpq	%rax, 28816(%rsp)	# tmp591, rndBuf.i1
	je	.L73	#,
.L74:
	movq	32(%rsp), %rbp	# %sfp, D.82124
	jmp	.L72	#
.L68:
	leaq	17024(%rsp), %rbp	#, ivtmp.132
	.p2align 4,,10
	.p2align 3
.L70:
	movq	17008(%rsp), %rdi	# rndBuf.rnd,
	addq	$4, %rbp	#, ivtmp.132
	call	_ZNSt23mersenne_twister_engineImLm64ELm312ELm156ELm31ELm13043109905998158313ELm29ELm6148914691236517205ELm17ELm8202884508482404352ELm37ELm18444473444759240704ELm43ELm6364136223846793005EEclEv	#
	movl	17020(%rsp), %edi	# rndBuf.max, tmp738
	movl	17016(%rsp), %esi	# rndBuf.min, D.82123
	xorl	%edx, %edx	# D.82118
	leal	1(%rdi), %ecx	#, D.82123
	subl	%esi, %ecx	# D.82123, D.82118
	divq	%rcx	# D.82118
	addl	%esi, %edx	# D.82123, tmp538
	movl	%edx, -4(%rbp)	# tmp538, MEM[base: _501, offset: 0B]
	cmpq	%rbp, %r14	# ivtmp.132, tmp566
	jne	.L70	#,
	jmp	.L69	#
.L53:
	movq	8(%rsp), %r13	# %sfp, ivtmp.165
	.p2align 4,,10
	.p2align 3
.L55:
	movq	%rbx, %rdi	# tmp563,
	addq	$4, %r13	#, ivtmp.165
	call	_ZNSt23mersenne_twister_engineImLm64ELm312ELm156ELm31ELm13043109905998158313ELm29ELm6148914691236517205ELm17ELm8202884508482404352ELm37ELm18444473444759240704ELm43ELm6364136223846793005EEclEv	#
	movq	%rax, %rdx	# D.82118, tmp488
	movq	%rax, %rcx	#, D.82118
	movabsq	$5270498306774157605, %rax	#, tmp666
	shrq	$2, %rdx	#, tmp488
	mulq	%rdx	# tmp488
	shrq	%rdx	# tmp487
	movq	%rdx, %rsi	# tmp487, tmp493
	leaq	(%rcx,%rdx,4), %rax	#, tmp494
	salq	$5, %rsi	#, tmp493
	subq	%rsi, %rax	# tmp493, D.82118
	addl	$11, %eax	#, tmp496
	movl	%eax, -4(%r13)	# tmp496, MEM[base: _246, offset: 0B]
	cmpq	%rbp, %r13	# rndBuf$i2, ivtmp.165
	jne	.L55	#,
	jmp	.L54	#
.L58:
	movq	8(%rsp), %r15	# %sfp, ivtmp.173
	.p2align 4,,10
	.p2align 3
.L60:
	movq	%rbx, %rdi	# tmp563,
	addq	$4, %r15	#, ivtmp.173
	call	_ZNSt23mersenne_twister_engineImLm64ELm312ELm156ELm31ELm13043109905998158313ELm29ELm6148914691236517205ELm17ELm8202884508482404352ELm37ELm18444473444759240704ELm43ELm6364136223846793005EEclEv	#
	movq	%rax, %rdx	# D.82118, tmp499
	movq	%rax, %rcx	#, D.82118
	movabsq	$5270498306774157605, %rax	#, tmp667
	shrq	$2, %rdx	#, tmp499
	mulq	%rdx	# tmp499
	shrq	%rdx	# tmp498
	movq	%rdx, %rsi	# tmp498, tmp504
	leaq	(%rcx,%rdx,4), %rax	#, tmp505
	salq	$5, %rsi	#, tmp504
	subq	%rsi, %rax	# tmp504, D.82118
	addl	$11, %eax	#, tmp507
	movl	%eax, -4(%r15)	# tmp507, MEM[base: _477, offset: 0B]
	cmpq	%rbp, %r15	# rndBuf$i2, ivtmp.173
	jne	.L60	#,
	jmp	.L59	#
.L73:
	leaq	17024(%rsp), %r15	#, ivtmp.141
	.p2align 4,,10
	.p2align 3
.L75:
	movq	17008(%rsp), %rdi	# rndBuf.rnd,
	addq	$4, %r15	#, ivtmp.141
	call	_ZNSt23mersenne_twister_engineImLm64ELm312ELm156ELm31ELm13043109905998158313ELm29ELm6148914691236517205ELm17ELm8202884508482404352ELm37ELm18444473444759240704ELm43ELm6364136223846793005EEclEv	#
	movl	17020(%rsp), %edi	# rndBuf.max, tmp741
	movl	17016(%rsp), %esi	# rndBuf.min, D.82123
	xorl	%edx, %edx	# D.82118
	leal	1(%rdi), %ecx	#, D.82123
	subl	%esi, %ecx	# D.82123, D.82118
	divq	%rcx	# D.82118
	addl	%esi, %edx	# D.82123, tmp554
	movl	%edx, -4(%r15)	# tmp554, MEM[base: _496, offset: 0B]
	cmpq	%r15, %rbp	# ivtmp.141, D.82124
	jne	.L75	#,
	jmp	.L74	#
.L77:
	movq	%r12, %rdi	# D.82125,
	call	_ZNKSt5ctypeIcE13_M_widen_initEv	#
	movq	(%r12), %rax	# MEM[(const struct ctype *)_268].D.28244._vptr.facet, MEM[(const struct ctype *)_268].D.28244._vptr.facet
	movl	$10, %esi	#, D.82115
	movq	48(%rax), %rax	# MEM[(int (*__vtbl_ptr_type) () *)_604 + 48B], D.82131
	cmpq	$_ZNKSt5ctypeIcE8do_widenEc, %rax	#, D.82131
	je	.L78	#,
	movq	%r12, %rdi	# D.82125,
	call	*%rax	# D.82131
.LEHE4:
	movsbl	%al, %esi	# D.82130, D.82115
	jmp	.L78	#
.L63:
	movq	%r12, %rdi	# D.82125,
.LEHB5:
	call	_ZNKSt5ctypeIcE13_M_widen_initEv	#
	movq	(%r12), %rax	# MEM[(const struct ctype *)_253].D.28244._vptr.facet, MEM[(const struct ctype *)_253].D.28244._vptr.facet
	movl	$10, %esi	#, D.82115
	movq	48(%rax), %rax	# MEM[(int (*__vtbl_ptr_type) () *)_533 + 48B], D.82131
	cmpq	$_ZNKSt5ctypeIcE8do_widenEc, %rax	#, D.82131
	je	.L64	#,
	movq	%r12, %rdi	# D.82125,
	call	*%rax	# D.82131
.LEHE5:
	movsbl	%al, %esi	# D.82130, D.82115
	jmp	.L64	#
.L48:
	movq	%r12, %rdi	# D.82125,
.LEHB6:
	call	_ZNKSt5ctypeIcE13_M_widen_initEv	#
	movq	(%r12), %rax	# MEM[(const struct ctype *)_236].D.28244._vptr.facet, MEM[(const struct ctype *)_236].D.28244._vptr.facet
	movl	$10, %esi	#, D.82115
	movq	48(%rax), %rax	# MEM[(int (*__vtbl_ptr_type) () *)_450 + 48B], D.82131
	cmpq	$_ZNKSt5ctypeIcE8do_widenEc, %rax	#, D.82131
	je	.L49	#,
	movq	%r12, %rdi	# D.82125,
	call	*%rax	# D.82131
.LEHE6:
	movsbl	%al, %esi	# D.82130, D.82115
	jmp	.L49	#
.L35:
	movq	%r12, %rdi	# D.82125,
.LEHB7:
	call	_ZNKSt5ctypeIcE13_M_widen_initEv	#
	movq	(%r12), %rax	# MEM[(const struct ctype *)_221].D.28244._vptr.facet, MEM[(const struct ctype *)_221].D.28244._vptr.facet
	movl	$10, %esi	#, D.82115
	movq	48(%rax), %rax	# MEM[(int (*__vtbl_ptr_type) () *)_386 + 48B], D.82131
	cmpq	$_ZNKSt5ctypeIcE8do_widenEc, %rax	#, D.82131
	je	.L36	#,
	movq	%r12, %rdi	# D.82125,
	call	*%rax	# D.82131
	movsbl	%al, %esi	# D.82130, D.82115
	jmp	.L36	#
.L23:
	movq	%r12, %rdi	# D.82125,
	call	_ZNKSt5ctypeIcE13_M_widen_initEv	#
	movq	(%r12), %rax	# MEM[(const struct ctype *)_208].D.28244._vptr.facet, MEM[(const struct ctype *)_208].D.28244._vptr.facet
	movl	$10, %esi	#, D.82115
	movq	48(%rax), %rax	# MEM[(int (*__vtbl_ptr_type) () *)_333 + 48B], D.82131
	cmpq	$_ZNKSt5ctypeIcE8do_widenEc, %rax	#, D.82131
	je	.L24	#,
	movq	%r12, %rdi	# D.82125,
	call	*%rax	# D.82131
	movsbl	%al, %esi	# D.82130, D.82115
	jmp	.L24	#
.L17:
	movq	%r12, %rdi	# D.82125,
	call	_ZNKSt5ctypeIcE13_M_widen_initEv	#
	movq	(%r12), %rax	# MEM[(const struct ctype *)_198].D.28244._vptr.facet, MEM[(const struct ctype *)_198].D.28244._vptr.facet
	movl	$10, %esi	#, D.82115
	movq	48(%rax), %rax	# MEM[(int (*__vtbl_ptr_type) () *)_290 + 48B], D.82131
	cmpq	$_ZNKSt5ctypeIcE8do_widenEc, %rax	#, D.82131
	je	.L18	#,
	movq	%r12, %rdi	# D.82125,
	call	*%rax	# D.82131
	movsbl	%al, %esi	# D.82130, D.82115
	jmp	.L18	#
.L22:
	call	_ZSt16__throw_bad_castv	#
.LEHE7:
.L135:
.LEHB8:
	call	_ZSt16__throw_bad_castv	#
.LEHE8:
.L94:
	movq	8(%rsp), %rdi	# %sfp,
	movq	%rax, %rbx	#, tmp562
	call	_ZdaPv	#
	movq	%rbx, %rdi	# tmp562,
.LEHB9:
	call	_Unwind_Resume	#
.LEHE9:
.L130:
.LEHB10:
	call	_ZSt16__throw_bad_castv	#
.LEHE10:
.L93:
	movq	16(%rsp), %rdi	# %sfp,
	movq	%rax, %rbx	#, tmp561
	call	_ZdaPv	#
	movq	%rbx, %rdi	# tmp561,
.LEHB11:
	call	_Unwind_Resume	#
.LEHE11:
	.cfi_endproc
.LFE7692:
	.globl	__gxx_personality_v0
	.section	.gcc_except_table,"a",@progbits
.LLSDA7692:
	.byte	0xff
	.byte	0xff
	.byte	0x1
	.uleb128 .LLSDACSE7692-.LLSDACSB7692
.LLSDACSB7692:
	.uleb128 .LEHB0-.LFB7692
	.uleb128 .LEHE0-.LEHB0
	.uleb128 0
	.uleb128 0
	.uleb128 .LEHB1-.LFB7692
	.uleb128 .LEHE1-.LEHB1
	.uleb128 .L93-.LFB7692
	.uleb128 0
	.uleb128 .LEHB2-.LFB7692
	.uleb128 .LEHE2-.LEHB2
	.uleb128 0
	.uleb128 0
	.uleb128 .LEHB3-.LFB7692
	.uleb128 .LEHE3-.LEHB3
	.uleb128 .L94-.LFB7692
	.uleb128 0
	.uleb128 .LEHB4-.LFB7692
	.uleb128 .LEHE4-.LEHB4
	.uleb128 0
	.uleb128 0
	.uleb128 .LEHB5-.LFB7692
	.uleb128 .LEHE5-.LEHB5
	.uleb128 .L94-.LFB7692
	.uleb128 0
	.uleb128 .LEHB6-.LFB7692
	.uleb128 .LEHE6-.LEHB6
	.uleb128 .L93-.LFB7692
	.uleb128 0
	.uleb128 .LEHB7-.LFB7692
	.uleb128 .LEHE7-.LEHB7
	.uleb128 0
	.uleb128 0
	.uleb128 .LEHB8-.LFB7692
	.uleb128 .LEHE8-.LEHB8
	.uleb128 .L94-.LFB7692
	.uleb128 0
	.uleb128 .LEHB9-.LFB7692
	.uleb128 .LEHE9-.LEHB9
	.uleb128 0
	.uleb128 0
	.uleb128 .LEHB10-.LFB7692
	.uleb128 .LEHE10-.LEHB10
	.uleb128 .L93-.LFB7692
	.uleb128 0
	.uleb128 .LEHB11-.LFB7692
	.uleb128 .LEHE11-.LEHB11
	.uleb128 0
	.uleb128 0
.LLSDACSE7692:
	.section	.text.startup
	.size	main, .-main
	.section	.text.unlikely
.LCOLDE10:
	.section	.text.startup
.LHOTE10:
	.section	.text.unlikely
.LCOLDB11:
	.section	.text.startup
.LHOTB11:
	.p2align 4,,15
	.type	_GLOBAL__sub_I_main, @function
_GLOBAL__sub_I_main:
.LFB8139:
	.cfi_startproc
	subq	$8, %rsp	#,
	.cfi_def_cfa_offset 16
	movl	$_ZStL8__ioinit, %edi	#,
	call	_ZNSt8ios_base4InitC1Ev	#
	movl	$__dso_handle, %edx	#,
	movl	$_ZStL8__ioinit, %esi	#,
	movl	$_ZNSt8ios_base4InitD1Ev, %edi	#,
	addq	$8, %rsp	#,
	.cfi_def_cfa_offset 8
	jmp	__cxa_atexit	#
	.cfi_endproc
.LFE8139:
	.size	_GLOBAL__sub_I_main, .-_GLOBAL__sub_I_main
	.section	.text.unlikely
.LCOLDE11:
	.section	.text.startup
.LHOTE11:
	.section	.init_array,"aw"
	.align 8
	.quad	_GLOBAL__sub_I_main
	.local	_ZStL8__ioinit
	.comm	_ZStL8__ioinit,1,1
	.hidden	__dso_handle
	.ident	"GCC: (Ubuntu 5.4.0-6ubuntu1~16.04.12) 5.4.0 20160609"
	.section	.note.GNU-stack,"",@progbits
